
WatchWinder.elf:     file format elf32-avr

Sections:
Idx Name          Size      VMA       LMA       File off  Algn
  0 .data         00000000  00800100  00800100  000006f7  2**0
                  ALLOC, LOAD, DATA
  1 .text         000000c8  00000000  00000000  00000094  2**1
                  CONTENTS, ALLOC, LOAD, READONLY, CODE
  2 .bss          00000017  00800100  00800100  000006f7  2**0
                  ALLOC
  3 .comment      0000002f  00000000  00000000  000006f7  2**0
                  CONTENTS, READONLY
  4 .debug_aranges 00000118  00000000  00000000  00000726  2**0
                  CONTENTS, READONLY, DEBUGGING
  5 .debug_info   00001825  00000000  00000000  0000083e  2**0
                  CONTENTS, READONLY, DEBUGGING
  6 .debug_abbrev 000007fd  00000000  00000000  00002063  2**0
                  CONTENTS, READONLY, DEBUGGING
  7 .debug_line   0000080f  00000000  00000000  00002860  2**0
                  CONTENTS, READONLY, DEBUGGING
  8 .debug_frame  00000338  00000000  00000000  00003070  2**2
                  CONTENTS, READONLY, DEBUGGING
  9 .debug_str    00000211  00000000  00000000  000033a8  2**0
                  CONTENTS, READONLY, DEBUGGING
 10 .debug_loc    000005c7  00000000  00000000  000035b9  2**0
                  CONTENTS, READONLY, DEBUGGING
 11 .debug_ranges 000000c8  00000000  00000000  00003b80  2**0
                  CONTENTS, READONLY, DEBUGGING
 12 .text         00000004  0000065e  0000065e  000006f2  2**1
                  CONTENTS, ALLOC, LOAD, READONLY, CODE
 13 .note.gnu.avr.deviceinfo 00000040  00000000  00000000  00003c48  2**2
                  CONTENTS, READONLY, DEBUGGING
 14 .text.ControlPowerLED 0000004c  00000478  00000478  0000050c  2**1
                  CONTENTS, ALLOC, LOAD, READONLY, CODE
 15 .text.ControlAmbientLED 0000004c  000004c4  000004c4  00000558  2**1
                  CONTENTS, ALLOC, LOAD, READONLY, CODE
 16 .text.ControlMotorEnable 00000046  00000510  00000510  000005a4  2**1
                  CONTENTS, ALLOC, LOAD, READONLY, CODE
 17 .text.ToggleMotorDirection 00000022  0000063c  0000063c  000006d0  2**1
                  CONTENTS, ALLOC, LOAD, READONLY, CODE
 18 .text.setup   00000056  00000422  00000422  000004b6  2**1
                  CONTENTS, ALLOC, LOAD, READONLY, CODE
 19 .text.InitInt0 0000002e  0000060e  0000060e  000006a2  2**1
                  CONTENTS, ALLOC, LOAD, READONLY, CODE
 20 .text.InitGPIO 00000046  00000556  00000556  000005ea  2**1
                  CONTENTS, ALLOC, LOAD, READONLY, CODE
 21 .bss.g_OnTimeSec 00000001  0080011b  0080011b  000006f7  2**0
                  ALLOC
 22 .bss.g_OnTimeMin 00000001  0080011c  0080011c  000006f7  2**0
                  ALLOC
 23 .bss.g_OnTimeHr 00000001  0080011d  0080011d  000006f7  2**0
                  ALLOC
 24 .bss.g_OnTimems 00000002  00800117  00800117  000006f7  2**0
                  ALLOC
 25 .bss.MotorTimer 00000002  00800119  00800119  000006f7  2**0
                  ALLOC
 26 .text.__vector_14 00000142  000000c8  000000c8  0000015c  2**1
                  CONTENTS, ALLOC, LOAD, READONLY, CODE
 27 .text.__vector_1 00000038  000005d6  000005d6  0000066a  2**1
                  CONTENTS, ALLOC, LOAD, READONLY, CODE
 28 .text.__vector_7 0000008a  00000334  00000334  000003c8  2**1
                  CONTENTS, ALLOC, LOAD, READONLY, CODE
 29 .data.gStateMachine 00000001  0080011e  00000662  000006f6  2**0
                  CONTENTS, ALLOC, LOAD, DATA
 30 .text.main    0000012a  0000020a  0000020a  0000029e  2**1
                  CONTENTS, ALLOC, LOAD, READONLY, CODE
 31 .text.InitTimer0 0000003a  0000059c  0000059c  00000630  2**1
                  CONTENTS, ALLOC, LOAD, READONLY, CODE
 32 .text.InitTimer2 00000064  000003be  000003be  00000452  2**1
                  CONTENTS, ALLOC, LOAD, READONLY, CODE

Disassembly of section .text:

00000000 <__vectors>:
   0:	0c 94 3a 00 	jmp	0x74	; 0x74 <__ctors_end>
   4:	0c 94 eb 02 	jmp	0x5d6	; 0x5d6 <__vector_1>
   8:	0c 94 2f 03 	jmp	0x65e	; 0x65e <__bad_interrupt>
   c:	0c 94 2f 03 	jmp	0x65e	; 0x65e <__bad_interrupt>
  10:	0c 94 2f 03 	jmp	0x65e	; 0x65e <__bad_interrupt>
  14:	0c 94 2f 03 	jmp	0x65e	; 0x65e <__bad_interrupt>
  18:	0c 94 2f 03 	jmp	0x65e	; 0x65e <__bad_interrupt>
  1c:	0c 94 9a 01 	jmp	0x334	; 0x334 <__vector_7>
  20:	0c 94 2f 03 	jmp	0x65e	; 0x65e <__bad_interrupt>
  24:	0c 94 2f 03 	jmp	0x65e	; 0x65e <__bad_interrupt>
  28:	0c 94 2f 03 	jmp	0x65e	; 0x65e <__bad_interrupt>
  2c:	0c 94 2f 03 	jmp	0x65e	; 0x65e <__bad_interrupt>
  30:	0c 94 2f 03 	jmp	0x65e	; 0x65e <__bad_interrupt>
  34:	0c 94 2f 03 	jmp	0x65e	; 0x65e <__bad_interrupt>
  38:	0c 94 64 00 	jmp	0xc8	; 0xc8 <_etext>
  3c:	0c 94 2f 03 	jmp	0x65e	; 0x65e <__bad_interrupt>
  40:	0c 94 2f 03 	jmp	0x65e	; 0x65e <__bad_interrupt>
  44:	0c 94 2f 03 	jmp	0x65e	; 0x65e <__bad_interrupt>
  48:	0c 94 2f 03 	jmp	0x65e	; 0x65e <__bad_interrupt>
  4c:	0c 94 2f 03 	jmp	0x65e	; 0x65e <__bad_interrupt>
  50:	0c 94 2f 03 	jmp	0x65e	; 0x65e <__bad_interrupt>
  54:	0c 94 2f 03 	jmp	0x65e	; 0x65e <__bad_interrupt>
  58:	0c 94 2f 03 	jmp	0x65e	; 0x65e <__bad_interrupt>
  5c:	0c 94 2f 03 	jmp	0x65e	; 0x65e <__bad_interrupt>
  60:	0c 94 2f 03 	jmp	0x65e	; 0x65e <__bad_interrupt>
  64:	0c 94 2f 03 	jmp	0x65e	; 0x65e <__bad_interrupt>

00000068 <.dinit>:
  68:	01 00       	.word	0x0001	; ????
  6a:	01 1e       	adc	r0, r17
  6c:	80 01       	movw	r16, r0
  6e:	1e 01       	movw	r2, r28
  70:	1f 00       	.word	0x001f	; ????
  72:	06 62       	ori	r16, 0x26	; 38

00000074 <__ctors_end>:
  74:	11 24       	eor	r1, r1
  76:	1f be       	out	0x3f, r1	; 63
  78:	cf ef       	ldi	r28, 0xFF	; 255
  7a:	d8 e0       	ldi	r29, 0x08	; 8
  7c:	de bf       	out	0x3e, r29	; 62
  7e:	cd bf       	out	0x3d, r28	; 61

00000080 <__do_copy_data>:
  80:	e8 e6       	ldi	r30, 0x68	; 104
  82:	f0 e0       	ldi	r31, 0x00	; 0
  84:	40 e0       	ldi	r20, 0x00	; 0
  86:	17 c0       	rjmp	.+46     	; 0xb6 <__do_clear_bss+0x8>
  88:	b5 91       	lpm	r27, Z+
  8a:	a5 91       	lpm	r26, Z+
  8c:	35 91       	lpm	r19, Z+
  8e:	25 91       	lpm	r18, Z+
  90:	05 91       	lpm	r16, Z+
  92:	07 fd       	sbrc	r16, 7
  94:	0c c0       	rjmp	.+24     	; 0xae <__do_clear_bss>
  96:	95 91       	lpm	r25, Z+
  98:	85 91       	lpm	r24, Z+
  9a:	ef 01       	movw	r28, r30
  9c:	f9 2f       	mov	r31, r25
  9e:	e8 2f       	mov	r30, r24
  a0:	05 90       	lpm	r0, Z+
  a2:	0d 92       	st	X+, r0
  a4:	a2 17       	cp	r26, r18
  a6:	b3 07       	cpc	r27, r19
  a8:	d9 f7       	brne	.-10     	; 0xa0 <__do_copy_data+0x20>
  aa:	fe 01       	movw	r30, r28
  ac:	04 c0       	rjmp	.+8      	; 0xb6 <__do_clear_bss+0x8>

000000ae <__do_clear_bss>:
  ae:	1d 92       	st	X+, r1
  b0:	a2 17       	cp	r26, r18
  b2:	b3 07       	cpc	r27, r19
  b4:	e1 f7       	brne	.-8      	; 0xae <__do_clear_bss>
  b6:	e4 37       	cpi	r30, 0x74	; 116
  b8:	f4 07       	cpc	r31, r20
  ba:	31 f7       	brne	.-52     	; 0x88 <__do_copy_data+0x8>
  bc:	0e 94 05 01 	call	0x20a	; 0x20a <main>
  c0:	0c 94 62 00 	jmp	0xc4	; 0xc4 <_exit>

000000c4 <_exit>:
  c4:	f8 94       	cli

000000c6 <__stop_program>:
  c6:	ff cf       	rjmp	.-2      	; 0xc6 <__stop_program>

Disassembly of section .text:

0000065e <__bad_interrupt>:
 65e:	0c 94 00 00 	jmp	0	; 0x0 <__TEXT_REGION_ORIGIN__>

Disassembly of section .text.ControlPowerLED:

00000478 <ControlPowerLED>:
	}
	else
	{
		PORTC &= ~(1<<MotorDirection);
	}
}
 478:	cf 93       	push	r28
 47a:	df 93       	push	r29
 47c:	1f 92       	push	r1
 47e:	cd b7       	in	r28, 0x3d	; 61
 480:	de b7       	in	r29, 0x3e	; 62
 482:	89 83       	std	Y+1, r24	; 0x01
 484:	89 81       	ldd	r24, Y+1	; 0x01
 486:	81 30       	cpi	r24, 0x01	; 1
 488:	69 f4       	brne	.+26     	; 0x4a4 <ControlPowerLED+0x2c>
 48a:	85 e2       	ldi	r24, 0x25	; 37
 48c:	90 e0       	ldi	r25, 0x00	; 0
 48e:	25 e2       	ldi	r18, 0x25	; 37
 490:	30 e0       	ldi	r19, 0x00	; 0
 492:	f9 01       	movw	r30, r18
 494:	20 81       	ld	r18, Z
 496:	22 60       	ori	r18, 0x02	; 2
 498:	fc 01       	movw	r30, r24
 49a:	20 83       	st	Z, r18
 49c:	81 e0       	ldi	r24, 0x01	; 1
 49e:	80 93 08 01 	sts	0x0108, r24	; 0x800108 <g_PowerLEDState>
 4a2:	0b c0       	rjmp	.+22     	; 0x4ba <ControlPowerLED+0x42>
 4a4:	85 e2       	ldi	r24, 0x25	; 37
 4a6:	90 e0       	ldi	r25, 0x00	; 0
 4a8:	25 e2       	ldi	r18, 0x25	; 37
 4aa:	30 e0       	ldi	r19, 0x00	; 0
 4ac:	f9 01       	movw	r30, r18
 4ae:	20 81       	ld	r18, Z
 4b0:	2d 7f       	andi	r18, 0xFD	; 253
 4b2:	fc 01       	movw	r30, r24
 4b4:	20 83       	st	Z, r18
 4b6:	10 92 08 01 	sts	0x0108, r1	; 0x800108 <g_PowerLEDState>
 4ba:	00 00       	nop
 4bc:	0f 90       	pop	r0
 4be:	df 91       	pop	r29
 4c0:	cf 91       	pop	r28
 4c2:	08 95       	ret

Disassembly of section .text.ControlAmbientLED:

000004c4 <ControlAmbientLED>:
 4c4:	cf 93       	push	r28
 4c6:	df 93       	push	r29
 4c8:	1f 92       	push	r1
 4ca:	cd b7       	in	r28, 0x3d	; 61
 4cc:	de b7       	in	r29, 0x3e	; 62
 4ce:	89 83       	std	Y+1, r24	; 0x01
 4d0:	89 81       	ldd	r24, Y+1	; 0x01
 4d2:	81 30       	cpi	r24, 0x01	; 1
 4d4:	69 f4       	brne	.+26     	; 0x4f0 <ControlAmbientLED+0x2c>
 4d6:	85 e2       	ldi	r24, 0x25	; 37
 4d8:	90 e0       	ldi	r25, 0x00	; 0
 4da:	25 e2       	ldi	r18, 0x25	; 37
 4dc:	30 e0       	ldi	r19, 0x00	; 0
 4de:	f9 01       	movw	r30, r18
 4e0:	20 81       	ld	r18, Z
 4e2:	21 60       	ori	r18, 0x01	; 1
 4e4:	fc 01       	movw	r30, r24
 4e6:	20 83       	st	Z, r18
 4e8:	81 e0       	ldi	r24, 0x01	; 1
 4ea:	80 93 10 01 	sts	0x0110, r24	; 0x800110 <g_AmbientLEDState>
 4ee:	0b c0       	rjmp	.+22     	; 0x506 <ControlAmbientLED+0x42>
 4f0:	85 e2       	ldi	r24, 0x25	; 37
 4f2:	90 e0       	ldi	r25, 0x00	; 0
 4f4:	25 e2       	ldi	r18, 0x25	; 37
 4f6:	30 e0       	ldi	r19, 0x00	; 0
 4f8:	f9 01       	movw	r30, r18
 4fa:	20 81       	ld	r18, Z
 4fc:	2e 7f       	andi	r18, 0xFE	; 254
 4fe:	fc 01       	movw	r30, r24
 500:	20 83       	st	Z, r18
 502:	10 92 10 01 	sts	0x0110, r1	; 0x800110 <g_AmbientLEDState>
 506:	00 00       	nop
 508:	0f 90       	pop	r0
 50a:	df 91       	pop	r29
 50c:	cf 91       	pop	r28
 50e:	08 95       	ret

Disassembly of section .text.ControlMotorEnable:

00000510 <ControlMotorEnable>:
 510:	cf 93       	push	r28
 512:	df 93       	push	r29
 514:	1f 92       	push	r1
 516:	cd b7       	in	r28, 0x3d	; 61
 518:	de b7       	in	r29, 0x3e	; 62
 51a:	89 83       	std	Y+1, r24	; 0x01
 51c:	89 81       	ldd	r24, Y+1	; 0x01
 51e:	81 30       	cpi	r24, 0x01	; 1
 520:	49 f4       	brne	.+18     	; 0x534 <ControlMotorEnable+0x24>
 522:	88 e2       	ldi	r24, 0x28	; 40
 524:	90 e0       	ldi	r25, 0x00	; 0
 526:	28 e2       	ldi	r18, 0x28	; 40
 528:	30 e0       	ldi	r19, 0x00	; 0
 52a:	f9 01       	movw	r30, r18
 52c:	20 81       	ld	r18, Z
 52e:	21 60       	ori	r18, 0x01	; 1
 530:	fc 01       	movw	r30, r24
 532:	20 83       	st	Z, r18
 534:	89 81       	ldd	r24, Y+1	; 0x01
 536:	88 23       	and	r24, r24
 538:	49 f4       	brne	.+18     	; 0x54c <ControlMotorEnable+0x3c>
 53a:	88 e2       	ldi	r24, 0x28	; 40
 53c:	90 e0       	ldi	r25, 0x00	; 0
 53e:	28 e2       	ldi	r18, 0x28	; 40
 540:	30 e0       	ldi	r19, 0x00	; 0
 542:	f9 01       	movw	r30, r18
 544:	20 81       	ld	r18, Z
 546:	2e 7f       	andi	r18, 0xFE	; 254
 548:	fc 01       	movw	r30, r24
 54a:	20 83       	st	Z, r18
 54c:	00 00       	nop
 54e:	0f 90       	pop	r0
 550:	df 91       	pop	r29
 552:	cf 91       	pop	r28
 554:	08 95       	ret

Disassembly of section .text.ToggleMotorDirection:

0000063c <ToggleMotorDirection>:

void ToggleMotorDirection (void)
{
 63c:	cf 93       	push	r28
 63e:	df 93       	push	r29
 640:	cd b7       	in	r28, 0x3d	; 61
 642:	de b7       	in	r29, 0x3e	; 62
	PINC |= (1<<MotorDirection);
 644:	86 e2       	ldi	r24, 0x26	; 38
 646:	90 e0       	ldi	r25, 0x00	; 0
 648:	26 e2       	ldi	r18, 0x26	; 38
 64a:	30 e0       	ldi	r19, 0x00	; 0
 64c:	f9 01       	movw	r30, r18
 64e:	20 81       	ld	r18, Z
 650:	22 60       	ori	r18, 0x02	; 2
 652:	fc 01       	movw	r30, r24
 654:	20 83       	st	Z, r18
}
 656:	00 00       	nop
 658:	df 91       	pop	r29
 65a:	cf 91       	pop	r28
 65c:	08 95       	ret

Disassembly of section .text.setup:

00000422 <setup>:
#include "global.h"
//#include "ADXL345.h"
#include "Timers.h"

void setup(void)
{
 422:	cf 93       	push	r28
 424:	df 93       	push	r29
 426:	cd b7       	in	r28, 0x3d	; 61
 428:	de b7       	in	r29, 0x3e	; 62
	// Internal peripherals
	// --------------------
	InitTimer0();		// Init timer0 for 1mS interrupts
 42a:	0e 94 ce 02 	call	0x59c	; 0x59c <InitTimer0>
	//InitTimer1();		// Init timer1 for PWM output 
	InitTimer2();		// Init Timer2 for motor pule step
 42e:	0e 94 df 01 	call	0x3be	; 0x3be <InitTimer2>
	InitGPIO();			// Set PORTD.2 as input and PORTB.5 as output
 432:	0e 94 ab 02 	call	0x556	; 0x556 <InitGPIO>
	InitInt0();			// Enable falling egde interrupts
 436:	0e 94 07 03 	call	0x60e	; 0x60e <InitInt0>
	
	/*Set step mode*/
	PORTC &= ~(1 << MotorMode0) | ~(1 << MotorMode1)| ~(1 << MotorMode2);	//Full step
 43a:	88 e2       	ldi	r24, 0x28	; 40
 43c:	90 e0       	ldi	r25, 0x00	; 0
 43e:	28 e2       	ldi	r18, 0x28	; 40
 440:	30 e0       	ldi	r19, 0x00	; 0
 442:	f9 01       	movw	r30, r18
 444:	20 81       	ld	r18, Z
 446:	fc 01       	movw	r30, r24
 448:	20 83       	st	Z, r18
	//PORTC = PORTC & (1 << MotorMode0) | ~(1 << MotorMode1)| ~(1 << MotorMode2);	//1/2 step
	//PORTC = PORTC & ~(1 << MotorMode0) | (1 << MotorMode1)| ~(1 << MotorMode2);	//1/4 step
	
	PORTC |= (1 << MotorMode2);	//1/16th stepp
 44a:	88 e2       	ldi	r24, 0x28	; 40
 44c:	90 e0       	ldi	r25, 0x00	; 0
 44e:	28 e2       	ldi	r18, 0x28	; 40
 450:	30 e0       	ldi	r19, 0x00	; 0
 452:	f9 01       	movw	r30, r18
 454:	20 81       	ld	r18, Z
 456:	20 62       	ori	r18, 0x20	; 32
 458:	fc 01       	movw	r30, r24
 45a:	20 83       	st	Z, r18
	PORTC |= (1 << MotorMode2) | (1 << MotorMode0);	//1/16th stepp
 45c:	88 e2       	ldi	r24, 0x28	; 40
 45e:	90 e0       	ldi	r25, 0x00	; 0
 460:	28 e2       	ldi	r18, 0x28	; 40
 462:	30 e0       	ldi	r19, 0x00	; 0
 464:	f9 01       	movw	r30, r18
 466:	20 81       	ld	r18, Z
 468:	28 62       	ori	r18, 0x28	; 40
 46a:	fc 01       	movw	r30, r24
 46c:	20 83       	st	Z, r18
	
	// External peripherals
	// --------------------
	
	/*Enable Interrupts*/
	sei();
 46e:	78 94       	sei
}
 470:	00 00       	nop
 472:	df 91       	pop	r29
 474:	cf 91       	pop	r28
 476:	08 95       	ret

Disassembly of section .text.InitInt0:

0000060e <InitInt0>:




void InitInt0()
{
 60e:	cf 93       	push	r28
 610:	df 93       	push	r29
 612:	cd b7       	in	r28, 0x3d	; 61
 614:	de b7       	in	r29, 0x3e	; 62
	//EICRA	=	(0<<ISC11) | (0<<ISC10) | (1<<ISC01) | (0<<ISC00);	// The falling edge of INT0 generates an interrupt request
	EICRA	=	(0<<ISC11) | (0<<ISC10) | (1<<ISC01) | (0<<ISC00);	// The rising edge of INT0 generates an interrupt request
 616:	89 e6       	ldi	r24, 0x69	; 105
 618:	90 e0       	ldi	r25, 0x00	; 0
 61a:	22 e0       	ldi	r18, 0x02	; 2
 61c:	fc 01       	movw	r30, r24
 61e:	20 83       	st	Z, r18
	EIMSK	=	(0<<INT1) | (1<<INT0);								// External Interrupt Request 0 Enable
 620:	8d e3       	ldi	r24, 0x3D	; 61
 622:	90 e0       	ldi	r25, 0x00	; 0
 624:	21 e0       	ldi	r18, 0x01	; 1
 626:	fc 01       	movw	r30, r24
 628:	20 83       	st	Z, r18
	EIFR	=	(1<<INTF1) | (1<<INTF0);							// Clear interrupt flag to avoid false triggers
 62a:	8c e3       	ldi	r24, 0x3C	; 60
 62c:	90 e0       	ldi	r25, 0x00	; 0
 62e:	23 e0       	ldi	r18, 0x03	; 3
 630:	fc 01       	movw	r30, r24
 632:	20 83       	st	Z, r18
	//sei();															// Set global interrupt enable bit
}
 634:	00 00       	nop
 636:	df 91       	pop	r29
 638:	cf 91       	pop	r28
 63a:	08 95       	ret

Disassembly of section .text.InitGPIO:

00000556 <InitGPIO>:

void InitGPIO(void)
{
 556:	cf 93       	push	r28
 558:	df 93       	push	r29
 55a:	cd b7       	in	r28, 0x3d	; 61
 55c:	de b7       	in	r29, 0x3e	; 62
	//Set outputs on port C
	DDRC	=	DDRC | ((1<<MotorEnable) | (1<<MotorDirection) | (1<<MotorStep) | (1<<MotorMode1) | (1<<MotorMode2) | (1<<MotorMode2) );		
 55e:	87 e2       	ldi	r24, 0x27	; 39
 560:	90 e0       	ldi	r25, 0x00	; 0
 562:	27 e2       	ldi	r18, 0x27	; 39
 564:	30 e0       	ldi	r19, 0x00	; 0
 566:	f9 01       	movw	r30, r18
 568:	20 81       	ld	r18, Z
 56a:	2b 63       	ori	r18, 0x3B	; 59
 56c:	fc 01       	movw	r30, r24
 56e:	20 83       	st	Z, r18
	//Set input on port D
	DDRD	=	DDRD &~(1<<PowerButton);						
 570:	8a e2       	ldi	r24, 0x2A	; 42
 572:	90 e0       	ldi	r25, 0x00	; 0
 574:	2a e2       	ldi	r18, 0x2A	; 42
 576:	30 e0       	ldi	r19, 0x00	; 0
 578:	f9 01       	movw	r30, r18
 57a:	20 81       	ld	r18, Z
 57c:	2f 7e       	andi	r18, 0xEF	; 239
 57e:	fc 01       	movw	r30, r24
 580:	20 83       	st	Z, r18
	//Set outputs on port B
	DDRB	=	DDRB | (1<<AmbientLED) | (1<<PowerLED);
 582:	84 e2       	ldi	r24, 0x24	; 36
 584:	90 e0       	ldi	r25, 0x00	; 0
 586:	24 e2       	ldi	r18, 0x24	; 36
 588:	30 e0       	ldi	r19, 0x00	; 0
 58a:	f9 01       	movw	r30, r18
 58c:	20 81       	ld	r18, Z
 58e:	23 60       	ori	r18, 0x03	; 3
 590:	fc 01       	movw	r30, r24
 592:	20 83       	st	Z, r18
 594:	00 00       	nop
 596:	df 91       	pop	r29
 598:	cf 91       	pop	r28
 59a:	08 95       	ret

Disassembly of section .text.__vector_14:

000000c8 <__vector_14>:


// Interrupt triggers every 1mS
// ----------------------------
ISR (TIMER0_COMPA_vect)
{
  c8:	1f 92       	push	r1
  ca:	0f 92       	push	r0
  cc:	00 90 5f 00 	lds	r0, 0x005F	; 0x80005f <__TEXT_REGION_LENGTH__+0x7f805f>
  d0:	0f 92       	push	r0
  d2:	11 24       	eor	r1, r1
  d4:	2f 93       	push	r18
  d6:	3f 93       	push	r19
  d8:	8f 93       	push	r24
  da:	9f 93       	push	r25
  dc:	ef 93       	push	r30
  de:	ff 93       	push	r31
  e0:	cf 93       	push	r28
  e2:	df 93       	push	r29
  e4:	cd b7       	in	r28, 0x3d	; 61
  e6:	de b7       	in	r29, 0x3e	; 62
	// Delay used for debouce of switch on INT0
	// ----------------------------------------
	if (g_INT0)
  e8:	80 91 0b 01 	lds	r24, 0x010B	; 0x80010b <g_INT0>
  ec:	88 23       	and	r24, r24
  ee:	31 f1       	breq	.+76     	; 0x13c <__vector_14+0x74>
	{
		// Check if the delay has passed AND button is actually pressed down
		if ( (++g_Delay > DELAY) & ((PIND & (1<<2)) == 0))
  f0:	80 91 14 01 	lds	r24, 0x0114	; 0x800114 <g_Delay>
  f4:	90 91 15 01 	lds	r25, 0x0115	; 0x800115 <g_Delay+0x1>
  f8:	01 96       	adiw	r24, 0x01	; 1
  fa:	90 93 15 01 	sts	0x0115, r25	; 0x800115 <g_Delay+0x1>
  fe:	80 93 14 01 	sts	0x0114, r24	; 0x800114 <g_Delay>
 102:	31 e0       	ldi	r19, 0x01	; 1
 104:	0b 97       	sbiw	r24, 0x0b	; 11
 106:	08 f4       	brcc	.+2      	; 0x10a <__vector_14+0x42>
 108:	30 e0       	ldi	r19, 0x00	; 0
 10a:	89 e2       	ldi	r24, 0x29	; 41
 10c:	90 e0       	ldi	r25, 0x00	; 0
 10e:	fc 01       	movw	r30, r24
 110:	80 81       	ld	r24, Z
 112:	88 2f       	mov	r24, r24
 114:	90 e0       	ldi	r25, 0x00	; 0
 116:	84 70       	andi	r24, 0x04	; 4
 118:	99 27       	eor	r25, r25
 11a:	21 e0       	ldi	r18, 0x01	; 1
 11c:	89 2b       	or	r24, r25
 11e:	09 f0       	breq	.+2      	; 0x122 <__vector_14+0x5a>
 120:	20 e0       	ldi	r18, 0x00	; 0
 122:	83 2f       	mov	r24, r19
 124:	82 23       	and	r24, r18
 126:	88 23       	and	r24, r24
 128:	49 f0       	breq	.+18     	; 0x13c <__vector_14+0x74>
		{
			g_ButtonPressed = 1;
 12a:	81 e0       	ldi	r24, 0x01	; 1
 12c:	80 93 16 01 	sts	0x0116, r24	; 0x800116 <g_ButtonPressed>
			g_Delay = 0;
 130:	10 92 15 01 	sts	0x0115, r1	; 0x800115 <g_Delay+0x1>
 134:	10 92 14 01 	sts	0x0114, r1	; 0x800114 <g_Delay>
			g_INT0 = 0;
 138:	10 92 0b 01 	sts	0x010B, r1	; 0x80010b <g_INT0>
		}
	}
	
	// General purpose timer value
	// ---------------------------
	g_Timer0++;
 13c:	80 91 02 01 	lds	r24, 0x0102	; 0x800102 <g_Timer0>
 140:	90 91 03 01 	lds	r25, 0x0103	; 0x800103 <g_Timer0+0x1>
 144:	01 96       	adiw	r24, 0x01	; 1
 146:	90 93 03 01 	sts	0x0103, r25	; 0x800103 <g_Timer0+0x1>
 14a:	80 93 02 01 	sts	0x0102, r24	; 0x800102 <g_Timer0>
	
	g_MotorPulseTimer++;
 14e:	80 91 09 01 	lds	r24, 0x0109	; 0x800109 <g_MotorPulseTimer>
 152:	90 91 0a 01 	lds	r25, 0x010A	; 0x80010a <g_MotorPulseTimer+0x1>
 156:	01 96       	adiw	r24, 0x01	; 1
 158:	90 93 0a 01 	sts	0x010A, r25	; 0x80010a <g_MotorPulseTimer+0x1>
 15c:	80 93 09 01 	sts	0x0109, r24	; 0x800109 <g_MotorPulseTimer>
	g_MotorTimer++;
 160:	80 91 04 01 	lds	r24, 0x0104	; 0x800104 <g_MotorTimer>
 164:	90 91 05 01 	lds	r25, 0x0105	; 0x800105 <g_MotorTimer+0x1>
 168:	01 96       	adiw	r24, 0x01	; 1
 16a:	90 93 05 01 	sts	0x0105, r25	; 0x800105 <g_MotorTimer+0x1>
 16e:	80 93 04 01 	sts	0x0104, r24	; 0x800104 <g_MotorTimer>
	
	
	//Timer for blinking LED's
	//------------------------
	g_BlinkTimer++;
 172:	80 91 0e 01 	lds	r24, 0x010E	; 0x80010e <g_BlinkTimer>
 176:	90 91 0f 01 	lds	r25, 0x010F	; 0x80010f <g_BlinkTimer+0x1>
 17a:	01 96       	adiw	r24, 0x01	; 1
 17c:	90 93 0f 01 	sts	0x010F, r25	; 0x80010f <g_BlinkTimer+0x1>
 180:	80 93 0e 01 	sts	0x010E, r24	; 0x80010e <g_BlinkTimer>
	
	// ADC timer
	// ---------
	MotorTimer++;	
 184:	80 91 19 01 	lds	r24, 0x0119	; 0x800119 <MotorTimer>
 188:	90 91 1a 01 	lds	r25, 0x011A	; 0x80011a <MotorTimer+0x1>
 18c:	01 96       	adiw	r24, 0x01	; 1
 18e:	90 93 1a 01 	sts	0x011A, r25	; 0x80011a <MotorTimer+0x1>
 192:	80 93 19 01 	sts	0x0119, r24	; 0x800119 <MotorTimer>
	
	// Time counter (HH:MM:SS)
	// -----------------------
	if (++g_OnTimems == 1000)
 196:	80 91 17 01 	lds	r24, 0x0117	; 0x800117 <_end>
 19a:	90 91 18 01 	lds	r25, 0x0118	; 0x800118 <_end+0x1>
 19e:	01 96       	adiw	r24, 0x01	; 1
 1a0:	90 93 18 01 	sts	0x0118, r25	; 0x800118 <_end+0x1>
 1a4:	80 93 17 01 	sts	0x0117, r24	; 0x800117 <_end>
 1a8:	88 3e       	cpi	r24, 0xE8	; 232
 1aa:	93 40       	sbci	r25, 0x03	; 3
 1ac:	f9 f4       	brne	.+62     	; 0x1ec <__vector_14+0x124>
	{
		g_OnTimems = 0;
 1ae:	10 92 18 01 	sts	0x0118, r1	; 0x800118 <_end+0x1>
 1b2:	10 92 17 01 	sts	0x0117, r1	; 0x800117 <_end>
		//g_DisplayDirty = 1;
		if (++g_OnTimeSec == 60)
 1b6:	80 91 1b 01 	lds	r24, 0x011B	; 0x80011b <g_OnTimeSec>
 1ba:	8f 5f       	subi	r24, 0xFF	; 255
 1bc:	80 93 1b 01 	sts	0x011B, r24	; 0x80011b <g_OnTimeSec>
 1c0:	8c 33       	cpi	r24, 0x3C	; 60
 1c2:	a1 f4       	brne	.+40     	; 0x1ec <__vector_14+0x124>
		{		
			g_OnTimeSec = 0;
 1c4:	10 92 1b 01 	sts	0x011B, r1	; 0x80011b <g_OnTimeSec>
			if (++g_OnTimeMin == 60)
 1c8:	80 91 1c 01 	lds	r24, 0x011C	; 0x80011c <g_OnTimeMin>
 1cc:	8f 5f       	subi	r24, 0xFF	; 255
 1ce:	80 93 1c 01 	sts	0x011C, r24	; 0x80011c <g_OnTimeMin>
 1d2:	8c 33       	cpi	r24, 0x3C	; 60
 1d4:	59 f4       	brne	.+22     	; 0x1ec <__vector_14+0x124>
			{
				g_OnTimeMin = 0;
 1d6:	10 92 1c 01 	sts	0x011C, r1	; 0x80011c <g_OnTimeMin>
				if (++g_OnTimeHr == 25)
 1da:	80 91 1d 01 	lds	r24, 0x011D	; 0x80011d <g_OnTimeHr>
 1de:	8f 5f       	subi	r24, 0xFF	; 255
 1e0:	80 93 1d 01 	sts	0x011D, r24	; 0x80011d <g_OnTimeHr>
 1e4:	89 31       	cpi	r24, 0x19	; 25
 1e6:	11 f4       	brne	.+4      	; 0x1ec <__vector_14+0x124>
				{
					g_OnTimeHr = 0;
 1e8:	10 92 1d 01 	sts	0x011D, r1	; 0x80011d <g_OnTimeHr>
				}
			}
		}
	}
}
 1ec:	00 00       	nop
 1ee:	df 91       	pop	r29
 1f0:	cf 91       	pop	r28
 1f2:	ff 91       	pop	r31
 1f4:	ef 91       	pop	r30
 1f6:	9f 91       	pop	r25
 1f8:	8f 91       	pop	r24
 1fa:	3f 91       	pop	r19
 1fc:	2f 91       	pop	r18
 1fe:	0f 90       	pop	r0
 200:	00 92 5f 00 	sts	0x005F, r0	; 0x80005f <__TEXT_REGION_LENGTH__+0x7f805f>
 204:	0f 90       	pop	r0
 206:	1f 90       	pop	r1
 208:	18 95       	reti

Disassembly of section .text.__vector_1:

000005d6 <__vector_1>:

// Interrupt triggers on button pressed (PORTD.2, Arduino port 2)
// --------------------------------------------------------------
ISR (INT0_vect)
{
 5d6:	1f 92       	push	r1
 5d8:	0f 92       	push	r0
 5da:	00 90 5f 00 	lds	r0, 0x005F	; 0x80005f <__TEXT_REGION_LENGTH__+0x7f805f>
 5de:	0f 92       	push	r0
 5e0:	11 24       	eor	r1, r1
 5e2:	8f 93       	push	r24
 5e4:	cf 93       	push	r28
 5e6:	df 93       	push	r29
 5e8:	cd b7       	in	r28, 0x3d	; 61
 5ea:	de b7       	in	r29, 0x3e	; 62
	g_INT0 = 1;
 5ec:	81 e0       	ldi	r24, 0x01	; 1
 5ee:	80 93 0b 01 	sts	0x010B, r24	; 0x80010b <g_INT0>
	g_Delay = 0;
 5f2:	10 92 15 01 	sts	0x0115, r1	; 0x800115 <g_Delay+0x1>
 5f6:	10 92 14 01 	sts	0x0114, r1	; 0x800114 <g_Delay>
}
 5fa:	00 00       	nop
 5fc:	df 91       	pop	r29
 5fe:	cf 91       	pop	r28
 600:	8f 91       	pop	r24
 602:	0f 90       	pop	r0
 604:	00 92 5f 00 	sts	0x005F, r0	; 0x80005f <__TEXT_REGION_LENGTH__+0x7f805f>
 608:	0f 90       	pop	r0
 60a:	1f 90       	pop	r1
 60c:	18 95       	reti

Disassembly of section .text.__vector_7:

00000334 <__vector_7>:

/*
Interrupt triggers 
*/
ISR (TIMER2_COMPA_vect)
{	
 334:	1f 92       	push	r1
 336:	0f 92       	push	r0
 338:	00 90 5f 00 	lds	r0, 0x005F	; 0x80005f <__TEXT_REGION_LENGTH__+0x7f805f>
 33c:	0f 92       	push	r0
 33e:	11 24       	eor	r1, r1
 340:	2f 93       	push	r18
 342:	8f 93       	push	r24
 344:	9f 93       	push	r25
 346:	ef 93       	push	r30
 348:	ff 93       	push	r31
 34a:	cf 93       	push	r28
 34c:	df 93       	push	r29
 34e:	cd b7       	in	r28, 0x3d	; 61
 350:	de b7       	in	r29, 0x3e	; 62
	//Check OCR2A value
	//Switch between high and low value depending on OCR2A content
	//Increment or decrement motor steps
	if (OCR2A == HIGHTIME)
 352:	83 eb       	ldi	r24, 0xB3	; 179
 354:	90 e0       	ldi	r25, 0x00	; 0
 356:	fc 01       	movw	r30, r24
 358:	80 81       	ld	r24, Z
 35a:	8d 37       	cpi	r24, 0x7D	; 125
 35c:	31 f4       	brne	.+12     	; 0x36a <__vector_7+0x36>
	{
		OCR2A = LOWTIME;
 35e:	83 eb       	ldi	r24, 0xB3	; 179
 360:	90 e0       	ldi	r25, 0x00	; 0
 362:	2d e7       	ldi	r18, 0x7D	; 125
 364:	fc 01       	movw	r30, r24
 366:	20 83       	st	Z, r18
 368:	05 c0       	rjmp	.+10     	; 0x374 <__vector_7+0x40>
	}
	else
	{
		OCR2A = HIGHTIME;
 36a:	83 eb       	ldi	r24, 0xB3	; 179
 36c:	90 e0       	ldi	r25, 0x00	; 0
 36e:	2d e7       	ldi	r18, 0x7D	; 125
 370:	fc 01       	movw	r30, r24
 372:	20 83       	st	Z, r18
	}
	
	if (g_MotorDirection == FORWARD)
 374:	80 91 11 01 	lds	r24, 0x0111	; 0x800111 <g_MotorDirection>
 378:	81 30       	cpi	r24, 0x01	; 1
 37a:	51 f4       	brne	.+20     	; 0x390 <__vector_7+0x5c>
	{	
		g_MotorSteps++;
 37c:	80 91 06 01 	lds	r24, 0x0106	; 0x800106 <g_MotorSteps>
 380:	90 91 07 01 	lds	r25, 0x0107	; 0x800107 <g_MotorSteps+0x1>
 384:	01 96       	adiw	r24, 0x01	; 1
 386:	90 93 07 01 	sts	0x0107, r25	; 0x800107 <g_MotorSteps+0x1>
 38a:	80 93 06 01 	sts	0x0106, r24	; 0x800106 <g_MotorSteps>
	}
	else
	{		
		g_MotorSteps--;
	}	
}
 38e:	09 c0       	rjmp	.+18     	; 0x3a2 <__vector_7+0x6e>
	{	
		g_MotorSteps++;
	}
	else
	{		
		g_MotorSteps--;
 390:	80 91 06 01 	lds	r24, 0x0106	; 0x800106 <g_MotorSteps>
 394:	90 91 07 01 	lds	r25, 0x0107	; 0x800107 <g_MotorSteps+0x1>
 398:	01 97       	sbiw	r24, 0x01	; 1
 39a:	90 93 07 01 	sts	0x0107, r25	; 0x800107 <g_MotorSteps+0x1>
 39e:	80 93 06 01 	sts	0x0106, r24	; 0x800106 <g_MotorSteps>
	}	
}
 3a2:	00 00       	nop
 3a4:	df 91       	pop	r29
 3a6:	cf 91       	pop	r28
 3a8:	ff 91       	pop	r31
 3aa:	ef 91       	pop	r30
 3ac:	9f 91       	pop	r25
 3ae:	8f 91       	pop	r24
 3b0:	2f 91       	pop	r18
 3b2:	0f 90       	pop	r0
 3b4:	00 92 5f 00 	sts	0x005F, r0	; 0x80005f <__TEXT_REGION_LENGTH__+0x7f805f>
 3b8:	0f 90       	pop	r0
 3ba:	1f 90       	pop	r1
 3bc:	18 95       	reti

Disassembly of section .text.main:

0000020a <main>:
unsigned char g_PowerLEDState;
unsigned char g_AmbientLEDState;


int main(void)
{
 20a:	cf 93       	push	r28
 20c:	df 93       	push	r29
 20e:	cd b7       	in	r28, 0x3d	; 61
 210:	de b7       	in	r29, 0x3e	; 62
	g_ButtonPressed = 0;
 212:	10 92 16 01 	sts	0x0116, r1	; 0x800116 <g_ButtonPressed>
	g_Timer0 = 0;
 216:	10 92 03 01 	sts	0x0103, r1	; 0x800103 <g_Timer0+0x1>
 21a:	10 92 02 01 	sts	0x0102, r1	; 0x800102 <g_Timer0>
	g_LedState = 0;
 21e:	10 92 12 01 	sts	0x0112, r1	; 0x800112 <g_LedState>
	
	gStateMachine = STATE_IDLE;
 222:	82 e0       	ldi	r24, 0x02	; 2
 224:	80 93 1e 01 	sts	0x011E, r24	; 0x80011e <gStateMachine>
	
	setup();
 228:	0e 94 11 02 	call	0x422	; 0x422 <setup>
		
    while(1)
    {
        switch (gStateMachine)
 22c:	80 91 1e 01 	lds	r24, 0x011E	; 0x80011e <gStateMachine>
 230:	88 2f       	mov	r24, r24
 232:	90 e0       	ldi	r25, 0x00	; 0
 234:	83 30       	cpi	r24, 0x03	; 3
 236:	91 05       	cpc	r25, r1
 238:	e9 f1       	breq	.+122    	; 0x2b4 <main+0xaa>
 23a:	84 30       	cpi	r24, 0x04	; 4
 23c:	91 05       	cpc	r25, r1
 23e:	34 f4       	brge	.+12     	; 0x24c <main+0x42>
 240:	81 30       	cpi	r24, 0x01	; 1
 242:	91 05       	cpc	r25, r1
 244:	59 f0       	breq	.+22     	; 0x25c <main+0x52>
 246:	02 97       	sbiw	r24, 0x02	; 2
 248:	c1 f0       	breq	.+48     	; 0x27a <main+0x70>
			break;
			
			default:
			/*Should never enter this state*/
			/*Add fault handling*/
			break;			
 24a:	73 c0       	rjmp	.+230    	; 0x332 <main+0x128>
	
	setup();
		
    while(1)
    {
        switch (gStateMachine)
 24c:	84 30       	cpi	r24, 0x04	; 4
 24e:	91 05       	cpc	r25, r1
 250:	09 f4       	brne	.+2      	; 0x254 <main+0x4a>
 252:	6a c0       	rjmp	.+212    	; 0x328 <main+0x11e>
 254:	05 97       	sbiw	r24, 0x05	; 5
 256:	09 f4       	brne	.+2      	; 0x25a <main+0x50>
 258:	69 c0       	rjmp	.+210    	; 0x32c <main+0x122>
			break;
			
			default:
			/*Should never enter this state*/
			/*Add fault handling*/
			break;			
 25a:	6b c0       	rjmp	.+214    	; 0x332 <main+0x128>
    while(1)
    {
        switch (gStateMachine)
		{
			case STATE_BOOT:
			ControlPowerLED(OFF);
 25c:	80 e0       	ldi	r24, 0x00	; 0
 25e:	0e 94 3c 02 	call	0x478	; 0x478 <ControlPowerLED>
			ControlMotorEnable(OFF);
 262:	80 e0       	ldi	r24, 0x00	; 0
 264:	0e 94 88 02 	call	0x510	; 0x510 <ControlMotorEnable>
			ControlAmbientLED(OFF);
 268:	80 e0       	ldi	r24, 0x00	; 0
 26a:	0e 94 62 02 	call	0x4c4	; 0x4c4 <ControlAmbientLED>
			gStateMachine++;			
 26e:	80 91 1e 01 	lds	r24, 0x011E	; 0x80011e <gStateMachine>
 272:	8f 5f       	subi	r24, 0xFF	; 255
 274:	80 93 1e 01 	sts	0x011E, r24	; 0x80011e <gStateMachine>
			
			break;
 278:	5c c0       	rjmp	.+184    	; 0x332 <main+0x128>
			motor disabled
			ambient light off
			power led breathing			
			*/
			
			if (g_ButtonPressed)
 27a:	80 91 16 01 	lds	r24, 0x0116	; 0x800116 <g_ButtonPressed>
 27e:	88 23       	and	r24, r24
 280:	09 f4       	brne	.+2      	; 0x284 <main+0x7a>
 282:	56 c0       	rjmp	.+172    	; 0x330 <main+0x126>
			{
				g_ButtonPressed = 0;
 284:	10 92 16 01 	sts	0x0116, r1	; 0x800116 <g_ButtonPressed>
				ControlPowerLED(ON);
 288:	81 e0       	ldi	r24, 0x01	; 1
 28a:	0e 94 3c 02 	call	0x478	; 0x478 <ControlPowerLED>
				ControlMotorEnable(ON);
 28e:	81 e0       	ldi	r24, 0x01	; 1
 290:	0e 94 88 02 	call	0x510	; 0x510 <ControlMotorEnable>
				g_MotorSteps = 0;
 294:	10 92 07 01 	sts	0x0107, r1	; 0x800107 <g_MotorSteps+0x1>
 298:	10 92 06 01 	sts	0x0106, r1	; 0x800106 <g_MotorSteps>
				g_MotorPosition = 1000;
 29c:	88 ee       	ldi	r24, 0xE8	; 232
 29e:	93 e0       	ldi	r25, 0x03	; 3
 2a0:	90 93 0d 01 	sts	0x010D, r25	; 0x80010d <g_MotorPosition+0x1>
 2a4:	80 93 0c 01 	sts	0x010C, r24	; 0x80010c <g_MotorPosition>
				gStateMachine++;
 2a8:	80 91 1e 01 	lds	r24, 0x011E	; 0x80011e <gStateMachine>
 2ac:	8f 5f       	subi	r24, 0xFF	; 255
 2ae:	80 93 1e 01 	sts	0x011E, r24	; 0x80011e <gStateMachine>
			}

			break;
 2b2:	3e c0       	rjmp	.+124    	; 0x330 <main+0x126>
			
			case STATE_ROTATE:
			PINC = (1<< MotorStep);	
 2b4:	86 e2       	ldi	r24, 0x26	; 38
 2b6:	90 e0       	ldi	r25, 0x00	; 0
 2b8:	28 e0       	ldi	r18, 0x08	; 8
 2ba:	fc 01       	movw	r30, r24
 2bc:	20 83       	st	Z, r18
				/*Increment motor pulses*/
				if (g_MotorSteps == g_MotorPosition)	//Change direction
 2be:	20 91 06 01 	lds	r18, 0x0106	; 0x800106 <g_MotorSteps>
 2c2:	30 91 07 01 	lds	r19, 0x0107	; 0x800107 <g_MotorSteps+0x1>
 2c6:	80 91 0c 01 	lds	r24, 0x010C	; 0x80010c <g_MotorPosition>
 2ca:	90 91 0d 01 	lds	r25, 0x010D	; 0x80010d <g_MotorPosition+0x1>
 2ce:	28 17       	cp	r18, r24
 2d0:	39 07       	cpc	r19, r25
 2d2:	a9 f4       	brne	.+42     	; 0x2fe <main+0xf4>
				{
					ToggleMotorDirection();					
 2d4:	0e 94 1e 03 	call	0x63c	; 0x63c <ToggleMotorDirection>
					if (g_MotorPosition < 0)
 2d8:	80 91 0c 01 	lds	r24, 0x010C	; 0x80010c <g_MotorPosition>
 2dc:	90 91 0d 01 	lds	r25, 0x010D	; 0x80010d <g_MotorPosition+0x1>
 2e0:	99 23       	and	r25, r25
 2e2:	3c f4       	brge	.+14     	; 0x2f2 <main+0xe8>
					{
						g_MotorPosition = 1000;
 2e4:	88 ee       	ldi	r24, 0xE8	; 232
 2e6:	93 e0       	ldi	r25, 0x03	; 3
 2e8:	90 93 0d 01 	sts	0x010D, r25	; 0x80010d <g_MotorPosition+0x1>
 2ec:	80 93 0c 01 	sts	0x010C, r24	; 0x80010c <g_MotorPosition>
 2f0:	06 c0       	rjmp	.+12     	; 0x2fe <main+0xf4>
					}
					else
					{
						g_MotorPosition = -1000;
 2f2:	88 e1       	ldi	r24, 0x18	; 24
 2f4:	9c ef       	ldi	r25, 0xFC	; 252
 2f6:	90 93 0d 01 	sts	0x010D, r25	; 0x80010d <g_MotorPosition+0x1>
 2fa:	80 93 0c 01 	sts	0x010C, r24	; 0x80010c <g_MotorPosition>
					}
				}

				
				if (g_ButtonPressed)
 2fe:	80 91 16 01 	lds	r24, 0x0116	; 0x800116 <g_ButtonPressed>
 302:	88 23       	and	r24, r24
 304:	59 f0       	breq	.+22     	; 0x31c <main+0x112>
				{
					g_ButtonPressed = 0;
 306:	10 92 16 01 	sts	0x0116, r1	; 0x800116 <g_ButtonPressed>
					ControlPowerLED(OFF);
 30a:	80 e0       	ldi	r24, 0x00	; 0
 30c:	0e 94 3c 02 	call	0x478	; 0x478 <ControlPowerLED>
					ControlMotorEnable(OFF);
 310:	80 e0       	ldi	r24, 0x00	; 0
 312:	0e 94 88 02 	call	0x510	; 0x510 <ControlMotorEnable>
					gStateMachine = STATE_IDLE;
 316:	82 e0       	ldi	r24, 0x02	; 2
 318:	80 93 1e 01 	sts	0x011E, r24	; 0x80011e <gStateMachine>
				}
				PINC = (1<< MotorStep);	
 31c:	86 e2       	ldi	r24, 0x26	; 38
 31e:	90 e0       	ldi	r25, 0x00	; 0
 320:	28 e0       	ldi	r18, 0x08	; 8
 322:	fc 01       	movw	r30, r24
 324:	20 83       	st	Z, r18
				
			break;
 326:	05 c0       	rjmp	.+10     	; 0x332 <main+0x128>
			
			case STATE_DIMMING:
			
			break;
 328:	00 00       	nop
 32a:	80 cf       	rjmp	.-256    	; 0x22c <main+0x22>

			case STATE_SPEEDADJUST:
			
			break;
 32c:	00 00       	nop
 32e:	7e cf       	rjmp	.-260    	; 0x22c <main+0x22>
				g_MotorSteps = 0;
				g_MotorPosition = 1000;
				gStateMachine++;
			}

			break;
 330:	00 00       	nop
			default:
			/*Should never enter this state*/
			/*Add fault handling*/
			break;			
		}
	}
 332:	7c cf       	rjmp	.-264    	; 0x22c <main+0x22>

Disassembly of section .text.InitTimer0:

0000059c <InitTimer0>:
#include <avr/interrupt.h>
#include "global.h"


void InitTimer0()
{
 59c:	cf 93       	push	r28
 59e:	df 93       	push	r29
 5a0:	cd b7       	in	r28, 0x3d	; 61
 5a2:	de b7       	in	r29, 0x3e	; 62
			TIMSK0	=	(1<<OCIE0A);							// Enable compare match A interrupt
			//sei();
		break;
		
		case 8000000:
			TCCR0A	=	(1<<WGM01);								// Configure timer in CTC mode
 5a4:	84 e4       	ldi	r24, 0x44	; 68
 5a6:	90 e0       	ldi	r25, 0x00	; 0
 5a8:	22 e0       	ldi	r18, 0x02	; 2
 5aa:	fc 01       	movw	r30, r24
 5ac:	20 83       	st	Z, r18
			TCCR0B  =	(1<<CS00) | (1<<CS01) | (0<<CS02);		// Set timer clock source to clock/8
 5ae:	85 e4       	ldi	r24, 0x45	; 69
 5b0:	90 e0       	ldi	r25, 0x00	; 0
 5b2:	23 e0       	ldi	r18, 0x03	; 3
 5b4:	fc 01       	movw	r30, r24
 5b6:	20 83       	st	Z, r18
			OCR0A	=	125;									// Compare register A to 125
 5b8:	87 e4       	ldi	r24, 0x47	; 71
 5ba:	90 e0       	ldi	r25, 0x00	; 0
 5bc:	2d e7       	ldi	r18, 0x7D	; 125
 5be:	fc 01       	movw	r30, r24
 5c0:	20 83       	st	Z, r18
			TIMSK0	=	(1<<OCIE0A);							// Enable compare match A interrupt
 5c2:	8e e6       	ldi	r24, 0x6E	; 110
 5c4:	90 e0       	ldi	r25, 0x00	; 0
 5c6:	22 e0       	ldi	r18, 0x02	; 2
 5c8:	fc 01       	movw	r30, r24
 5ca:	20 83       	st	Z, r18
			//sei();
		break;
 5cc:	00 00       	nop
	}
}
 5ce:	00 00       	nop
 5d0:	df 91       	pop	r29
 5d2:	cf 91       	pop	r28
 5d4:	08 95       	ret

Disassembly of section .text.InitTimer2:

000003be <InitTimer2>:
	}

}

void InitTimer2() //Configuration as step driver for stepper motor
{	
 3be:	cf 93       	push	r28
 3c0:	df 93       	push	r29
 3c2:	cd b7       	in	r28, 0x3d	; 61
 3c4:	de b7       	in	r29, 0x3e	; 62
	/*
	TCCR2A in CTC mode, toggle O2CA on compare match
	*/
	TCCR2A	=	(0<<COM2A1) | (1<<COM2A0) | (0<<COM2B1) | (0<<COM2B0) | (0<<WGM20) | (1<<WGM21) | (0<<COM2B1);	
 3c6:	80 eb       	ldi	r24, 0xB0	; 176
 3c8:	90 e0       	ldi	r25, 0x00	; 0
 3ca:	22 e4       	ldi	r18, 0x42	; 66
 3cc:	fc 01       	movw	r30, r24
 3ce:	20 83       	st	Z, r18
	TCCR2B  =	(1<<CS20) | (0<<CS21) | (0<<CS22);		// Set timer clock source to clock/64 (8Mhz/64 = 125Khz)
 3d0:	81 eb       	ldi	r24, 0xB1	; 177
 3d2:	90 e0       	ldi	r25, 0x00	; 0
 3d4:	21 e0       	ldi	r18, 0x01	; 1
 3d6:	fc 01       	movw	r30, r24
 3d8:	20 83       	st	Z, r18
	OCR2A	=	125;	//1ms interrupt
 3da:	83 eb       	ldi	r24, 0xB3	; 179
 3dc:	90 e0       	ldi	r25, 0x00	; 0
 3de:	2d e7       	ldi	r18, 0x7D	; 125
 3e0:	fc 01       	movw	r30, r24
 3e2:	20 83       	st	Z, r18
	OCR2B	=	0;		
 3e4:	84 eb       	ldi	r24, 0xB4	; 180
 3e6:	90 e0       	ldi	r25, 0x00	; 0
 3e8:	fc 01       	movw	r30, r24
 3ea:	10 82       	st	Z, r1
	TCNT2	=	0;		
 3ec:	82 eb       	ldi	r24, 0xB2	; 178
 3ee:	90 e0       	ldi	r25, 0x00	; 0
 3f0:	fc 01       	movw	r30, r24
 3f2:	10 82       	st	Z, r1
	DDRB	=	DDRB | (1<<MotorStep);						// Make sure PORTB.3 is set as output for the servo
 3f4:	84 e2       	ldi	r24, 0x24	; 36
 3f6:	90 e0       	ldi	r25, 0x00	; 0
 3f8:	24 e2       	ldi	r18, 0x24	; 36
 3fa:	30 e0       	ldi	r19, 0x00	; 0
 3fc:	f9 01       	movw	r30, r18
 3fe:	20 81       	ld	r18, Z
 400:	28 60       	ori	r18, 0x08	; 8
 402:	fc 01       	movw	r30, r24
 404:	20 83       	st	Z, r18
	TIFR2	=	(1<<OCF2A);		//Clear interrupt flag
 406:	87 e3       	ldi	r24, 0x37	; 55
 408:	90 e0       	ldi	r25, 0x00	; 0
 40a:	22 e0       	ldi	r18, 0x02	; 2
 40c:	fc 01       	movw	r30, r24
 40e:	20 83       	st	Z, r18
	TIMSK2	=	(1<<OCIE2A);	//Enable interrupt
 410:	80 e7       	ldi	r24, 0x70	; 112
 412:	90 e0       	ldi	r25, 0x00	; 0
 414:	22 e0       	ldi	r18, 0x02	; 2
 416:	fc 01       	movw	r30, r24
 418:	20 83       	st	Z, r18
}
 41a:	00 00       	nop
 41c:	df 91       	pop	r29
 41e:	cf 91       	pop	r28
 420:	08 95       	ret
